; Function Attrs: mustprogress uwtable
define hidden void @_ZN4lean4findENS_8list_refINS_8pair_refINS_4nameENS_10data_valueEEEEERKS2_(ptr dead_on_unwind noalias writable writeonly sret(%"class.lean::optional") align 8 captures(none) %0, ptr noundef captures(none) %1, ptr noundef nonnull readonly align 8 captures(none) dereferenceable(8) %2) local_unnamed_addr #0 {
  %4 = load ptr, ptr %1, align 8, !tbaa !3
  %5 = ptrtoint ptr %4 to i64
  %6 = and i64 %5, 1
  %.not3 = icmp eq i64 %6, 0
  br i1 %.not3, label %.lr.ph, label %._crit_edge

.lr.ph:                                           ; preds = %3, %_ZN4lean8list_refINS_8pair_refINS_4nameENS_10data_valueEEEEaSERKS5_.exit
  %7 = phi ptr [ %41, %_ZN4lean8list_refINS_8pair_refINS_4nameENS_10data_valueEEEEaSERKS5_.exit ], [ %4, %3 ]
  %8 = getelementptr inbounds nuw i8, ptr %7, i64 8
  %9 = load ptr, ptr %8, align 8, !tbaa !3
  %10 = getelementptr inbounds nuw i8, ptr %9, i64 8
  %11 = load ptr, ptr %10, align 8, !tbaa !3
  %12 = load ptr, ptr %2, align 8, !tbaa !3
  %13 = tail call zeroext i8 @lean_name_eq(ptr noundef %11, ptr noundef %12)
  %.not2 = icmp eq i8 %13, 0
  %14 = load ptr, ptr %1, align 8, !tbaa !3
  br i1 %.not2, label %29, label %15

15:                                               ; preds = %.lr.ph
  %16 = getelementptr inbounds nuw i8, ptr %14, i64 8
  %17 = load ptr, ptr %16, align 8, !tbaa !3
  %18 = getelementptr inbounds nuw i8, ptr %17, i64 16
  store i8 1, ptr %0, align 8, !tbaa !13
  %19 = getelementptr inbounds nuw i8, ptr %0, i64 8
  %20 = load ptr, ptr %18, align 8, !tbaa !3
  store ptr %20, ptr %19, align 8, !tbaa !3
  %21 = ptrtoint ptr %20 to i64
  %22 = and i64 %21, 1
  %.not.i.i.i.i = icmp eq i64 %22, 0
  br i1 %.not.i.i.i.i, label %23, label %_ZN4lean8optionalINS_10data_valueEEC2ERKS1_.exit

23:                                               ; preds = %15
  %.val.i.i.i.i.i = load i32, ptr %20, align 4, !tbaa !8
  %24 = icmp sgt i32 %.val.i.i.i.i.i, 0
  br i1 %24, label %25, label %27, !prof !11

25:                                               ; preds = %23
  %26 = add nuw nsw i32 %.val.i.i.i.i.i, 1
  store i32 %26, ptr %20, align 4, !tbaa !8
  br label %_ZN4lean8optionalINS_10data_valueEEC2ERKS1_.exit

27:                                               ; preds = %23
  %.not.i.i.i.i.i = icmp eq i32 %.val.i.i.i.i.i, 0
  br i1 %.not.i.i.i.i.i, label %_ZN4lean8optionalINS_10data_valueEEC2ERKS1_.exit, label %28

28:                                               ; preds = %27
  tail call void @lean_inc_ref_cold(ptr noundef nonnull %20)
  br label %_ZN4lean8optionalINS_10data_valueEEC2ERKS1_.exit

29:                                               ; preds = %.lr.ph
  %30 = getelementptr inbounds nuw i8, ptr %14, i64 16
  %31 = load ptr, ptr %30, align 8, !tbaa !3
  %32 = ptrtoint ptr %31 to i64
  %33 = and i64 %32, 1
  %.not.i.i.i = icmp eq i64 %33, 0
  br i1 %.not.i.i.i, label %34, label %_ZN4lean3incEP11lean_object.exit.i.i

34:                                               ; preds = %29
  %.val.i.i.i.i = load i32, ptr %31, align 4, !tbaa !8
  %35 = icmp sgt i32 %.val.i.i.i.i, 0
  br i1 %35, label %36, label %38, !prof !11

36:                                               ; preds = %34
  %37 = add nuw nsw i32 %.val.i.i.i.i, 1
  store i32 %37, ptr %31, align 4, !tbaa !8
  br label %_ZN4lean3incEP11lean_object.exit.i.i

38:                                               ; preds = %34
  %.not.i.i.i.i1 = icmp eq i32 %.val.i.i.i.i, 0
  br i1 %.not.i.i.i.i1, label %_ZN4lean3incEP11lean_object.exit.i.i, label %39

39:                                               ; preds = %38
  tail call void @lean_inc_ref_cold(ptr noundef nonnull %31)
  %.pre.i.i = load ptr, ptr %30, align 8, !tbaa !3
  %.pre = load ptr, ptr %1, align 8, !tbaa !3
  br label %_ZN4lean3incEP11lean_object.exit.i.i

_ZN4lean3incEP11lean_object.exit.i.i:             ; preds = %39, %38, %36, %29
  %40 = phi ptr [ %14, %29 ], [ %14, %36 ], [ %14, %38 ], [ %.pre, %39 ]
  %41 = phi ptr [ %31, %29 ], [ %31, %36 ], [ %31, %38 ], [ %.pre.i.i, %39 ]
  %42 = ptrtoint ptr %40 to i64
  %43 = and i64 %42, 1
  %.not.i4.i.i = icmp eq i64 %43, 0
  br i1 %.not.i4.i.i, label %44, label %_ZN4lean8list_refINS_8pair_refINS_4nameENS_10data_valueEEEEaSERKS5_.exit

44:                                               ; preds = %_ZN4lean3incEP11lean_object.exit.i.i
  %45 = load i32, ptr %40, align 4, !tbaa !8
  %46 = icmp sgt i32 %45, 1
  br i1 %46, label %47, label %49, !prof !11

47:                                               ; preds = %44
  %48 = add nsw i32 %45, -1
  store i32 %48, ptr %40, align 4, !tbaa !8
  br label %_ZN4lean8list_refINS_8pair_refINS_4nameENS_10data_valueEEEEaSERKS5_.exit

49:                                               ; preds = %44
  %.not.i.i5.i.i = icmp eq i32 %45, 0
  br i1 %.not.i.i5.i.i, label %_ZN4lean8list_refINS_8pair_refINS_4nameENS_10data_valueEEEEaSERKS5_.exit, label %50

50:                                               ; preds = %49
  tail call void @lean_dec_ref_cold(ptr noundef nonnull %40)
  br label %_ZN4lean8list_refINS_8pair_refINS_4nameENS_10data_valueEEEEaSERKS5_.exit

_ZN4lean8list_refINS_8pair_refINS_4nameENS_10data_valueEEEEaSERKS5_.exit: ; preds = %_ZN4lean3incEP11lean_object.exit.i.i, %47, %49, %50
  store ptr %41, ptr %1, align 8, !tbaa !3
  %51 = ptrtoint ptr %41 to i64
  %52 = and i64 %51, 1
  %.not = icmp eq i64 %52, 0
  br i1 %.not, label %.lr.ph, label %._crit_edge, !llvm.loop !16

._crit_edge:                                      ; preds = %_ZN4lean8list_refINS_8pair_refINS_4nameENS_10data_valueEEEEaSERKS5_.exit, %3
  store i8 0, ptr %0, align 8, !tbaa !13
  br label %_ZN4lean8optionalINS_10data_valueEEC2ERKS1_.exit

_ZN4lean8optionalINS_10data_valueEEC2ERKS1_.exit: ; preds = %28, %27, %25, %15, %._crit_edge
  ret void
}